Open Watcom Linker Version 2.0 beta Oct 25 2021 00:38:10 (64-bit)
Copyright (c) 2002-2021 The Open Watcom Contributors. All Rights Reserved.
Portions Copyright (c) 1985-2002 Sybase, Inc. All Rights Reserved.
Created on:       26/01/25 13:30:18
Executable Image: kernel.exe
creating a DOS executable


                        +------------+
                        |   Groups   |
                        +------------+

Group                           Address              Size
=====                           =======              ====

PGROUP                          0000:0000            00000100
LGROUP                          0010:0000            00000687
DGROUP                          0079:0000            00001910
TGROUP                          020a:0000            0000de90
I_GROUP                         0ff3:0000            0000267a



                        +--------------+
                        |   Segments   |
                        +--------------+

Segment                Class          Group          Address         Size
=======                =====          =====          =======         ====

PSP                    PSP            PGROUP         0000:0000       00000100
_IRQTEXT               LCODE          LGROUP         0010:0000       00000100
_LOWTEXT               LCODE          LGROUP         0020:0000       00000112
_IO_TEXT               LCODE          LGROUP         0031:0002       00000337
_IO_FIXED_DATA         LCODE          LGROUP         0064:000a       0000013d
_TEXT                  LCODE          LGROUP         0078:0007       00000000
_FIXED_DATA            FDATA          DGROUP         0079:0000       00000afa
_BSS                   BSS            DGROUP         0128:000a       000002a2
_DATA                  DATA           DGROUP         0152:000c       00000448
_DATAEND               DATA           DGROUP         0197:0004       000000c0
CONST                  DATA           DGROUP         01a3:0004       00000331
CONST2                 DATA           DGROUP         01d6:0006       00000338
DCONST                 DCONST         DGROUP         0209:000e       00000000
DYN_DATA               DYN_DATA       DGROUP         0209:000e       00000002
HMA_TEXT_START         CODE           TGROUP         020a:0000       00000000
HMA_TEXT               CODE           TGROUP         020a:0000       00009cbb
HMA_TEXT_END           CODE           TGROUP         0bd6:0000       00000000
INIT_TEXT_START        CODE           TGROUP         0bd6:0000       00000000
INIT_TEXT              CODE           TGROUP         0bd6:0000       000041c5
INIT_TEXT_END          CODE           TGROUP         0ff3:0000       00000000
ID_B                   FAR_DATA       I_GROUP        0ff3:0000       00000000
I_DATA                 FAR_DATA       I_GROUP        0ff3:0000       00000624
ICONST                 FAR_DATA       I_GROUP        1055:0004       00000bf0
ICONST2                FAR_DATA       I_GROUP        1114:0004       00000000
ID_E                   FAR_DATA       I_GROUP        1114:0004       00000000
IB_B                   FAR_DATA       I_GROUP        1114:0004       00000000
I_BSS                  FAR_DATA       I_GROUP        1114:0004       00001056
IB_E                   FAR_DATA       I_GROUP        1219:000a       00000410
_STACK                 STACK          AUTO           125a:000a       00001000


                        +----------------+
                        |   Memory Map   |
                        +----------------+

* = unreferenced symbol
+ = symbol only referenced locally
s = symbol is static

Address        Symbol
=======        ======

Module: kernel.obj(kernel.asm)
0000:0002*     _LowKernelConfig
0000:0020*     realentry
0000:0080      _master_env
0010:0100      _intvec_table
0010:0106      _BIOSInt13
0010:0110*     _BIOSInt19
0010:011a      _UserInt13
0010:011e      _int1e_table
0010:012c      _TEXT_DGROUP
0079:0000*     DATASTART
0079:0000      _DATASTART
0079:000e      _NetBios
0079:001a      _NetRetry
0079:001c      _NetDelay
0079:001e*     _DskBuffer
0079:0022      _inputptr
0079:0024      _first_mcb
0079:0026*     MARK0026H
0079:0026      _DPBp
0079:002a      _sfthead
0079:002e      _clock
0079:0032      _syscon
0079:0036      _maxsecsize
0079:003c      _CDSp
0079:0040*     _FCBp
0079:0044*     _nprotfcb
0079:0046*     _nblkdev
0079:0047      _lastdrive
0079:0048      _nul_dev
0079:005a      _njoined
0079:005d      _setverPtr
0079:0065      _LoL_nbuffers
0079:0069      _BootDrive
0079:006a      _CPULevel
0079:006d      _firstbuf
0079:0079      _bufloc
0079:007a      _deblock_buf
0079:0086*     _VgaSet
0079:0089      _uppermem_link
0079:008c      _uppermem_root
0079:0090      _os_setver_minor
0079:0091      _os_setver_major
0079:0092      _os_minor
0079:0093      _os_major
0079:0095      _version_flags
0079:0096*     os_release
0079:0098      _winInstanced
0079:009a      _winStartupInfo
0079:00b8      _winPatchTable
0079:00cc*     _firstsftt
0079:01fb*     MARK01FBH
0079:01fb      _local_buffer
0079:027b      _kb_buf
0079:02fe      _PrinterEcho
0079:02ff      _verify_ena
0079:0300      _scr_pos
0079:0301      _switchar
0079:0302      _mem_access_mode
0079:0303*     sharing_flag
0079:0304      _net_set_count
0079:0305      _net_name
0079:0315*     _CritPatch
0079:0320      _internal_data
0079:0320      _ErrorMode
0079:0321      _InDOS
0079:0322*     _CritErrDrive
0079:0323      _CritErrLocus
0079:0324      _CritErrCode
0079:0326      _CritErrAction
0079:0327      _CritErrClass
0079:0328      _CritErrDev
0079:032c      _dta
0079:0330      _cu_psp
0079:0334      _return_code
0079:0336      _default_drive
0079:0337      _break_ena
0079:033a      _swap_always
0079:033a      _Int21AX
0079:033c*     owning_psp
0079:033e      _MachineId
0079:034d      _break_flg
0079:0350*     _DayOfMonth
0079:0351*     _Month
0079:0352*     _YearsSince1980
0079:0356*     _DayOfWeek
0079:0358*     _dosidle_flag
0079:0359      _abort_progress
0079:035a      _CharReqHdr
0079:035a      _ClkReqHdr
0079:037c      _MediaReqHdr
0079:0392      _IoReqHdr
0079:03b6      _ClkRecord
0079:03be      __PriPathBuffer
0079:043e      __SecPathBuffer
0079:04be      _sda_tmp_dm
0079:04d3      _SearchDir
0079:04f3      _TempCDS
0079:054b      _DirEntBuffer
0079:056b      _wAttr
0079:056d      _SAttr
0079:056e      _OpenMode
0079:0572*     _Server_Call
0079:057c      _term_type
0079:057e*     term_psp
0079:0580*     int24_esbp
0079:0584      _user_r
0079:0584      int21regs_off
0079:0586      int21regs_seg
0079:0588      critical_sp
0079:058a*     current_ddsc
0079:059a*     current_device
0079:059e      _lpCurSft
0079:05a2      _current_ldt
0079:05a6      _sda_lpFcb
0079:05aa      _current_sft_idx
0079:05ce      _current_filepos
0079:05f0*     _prev_user_r
0079:05f0*     prev_int21regs_off
0079:05f2*     prev_int21regs_seg
0079:05fd      _ext_open_action
0079:05ff      _ext_open_attrib
0079:0601      _ext_open_mode
0079:0620*     apistk_bottom
0079:0620      _sda_tmp_dm_ren
0079:0635*     _SearchDir_ren
0079:07a0      _error_tos
0079:0920      _disk_api_tos
0079:0aa0      _char_api_tos
0079:0f9c      blk_stk_top
0079:109c      clk_stk_top
0079:119c      int2f_stk_top
0079:11e4      _swap_indos
0079:12a4      _p_0_tos
0079:12a4*     _nul_strtgy
0079:12a9*     _nul_intr
0079:12cb      _int22_handler
0079:12cb      _int28_handler
0079:12cb      _int2a_handler
0079:12cb      _empty_handler
0079:12d0      __HMARelocationTableStart
0079:12d0      _int2f_handler
0079:12d8      _int20_handler
0079:12e0      _int21_handler
0079:12e8      _low_int25_handler
0079:12f0      _low_int26_handler
0079:12f8      _int27_handler
0079:1300      _int0_handler
0079:1308      _int6_handler
0079:1310      _int19_handler
0079:1318      _cpm_entry
0079:1320      _reloc_call_blk_driver
0079:1328      _reloc_call_clk_driver
0079:1330      _CharMapSrvc
0079:1338      _init_call_p_0
0079:1340      __HMARelocationTableEnd
0079:1340      _ENABLEA20
0079:1342      _XMS_Enable_Patch
0079:1345      _XMSDriverAddress
0079:134b      _DISABLEA20
0079:134f*     forceEnableA20
0079:1377      _ExecUserDisableA20
0079:137e      _int24_handler
0079:190e      _Dyn
0079:1910*     _markEndInstanceData
020a:0000*     __HMATextAvailable
020a:0000      __HMATextStart
020a:0031      _DGROUP_
020a:0033      __U4M
020a:0049      __U4D
020a:9cc0      __HMATextEnd
020a:9cc0      __InitTextStart
020a:9da7*     _INIT_DGROUP
020a:de90      __InitTextEnd
0ff3:0000*     __INIT_DATA_START
0ff3:1214*     __INIT_DATA_END
0ff3:1214      __ib_start
0ff3:226a      __ib_end
0ff3:266a*     init_tos
0ff3:267a      __init_end
Module: entry.obj(entry.asm)
020a:00d5      reloc_call_cpm_entry
020a:0134      reloc_call_int0_handler
020a:0182      reloc_call_int6_handler
020a:0187      reloc_call_int19_handler
020a:01a4      reloc_call_int20_handler
020a:01a6      reloc_call_int21_handler
020a:025a      _int21_iret
020a:0282      reloc_call_int27_handler
020a:0293      reloc_call_low_int26_handler
020a:029b      reloc_call_low_int25_handler
020a:02db      _CriticalError
Module: io.obj(io.asm)
0010:0212      _ReqPktPtr
0010:0218      GenStrategy
0010:02cf      _IOSuccess
0010:02d9      _IOExit
0010:02ed      _IODone
0010:02f1      _IOCommandError
0010:02f3      _IOErrCnt
0010:02fb      _IOErrorExit
0010:02ff      GetUnitNum
0010:054a      _con_dev
0010:055c*     _prn_dev
0010:056e*     _aux_dev
0010:05fe*     _clk_dev
0010:0610      _blk_dev
Module: console.obj(console.asm)
0010:012f      _kbdType
0010:0130*     ConInit
0010:0140*     ConRead
0010:015d*     KbdRdChar
0010:0180      CommonNdRdExit
0010:01be*     ConInpFlush
0010:01dd*     ConWrite
0010:01f1      _int29_handler
0010:0624      ConTable
Module: serial.obj(serial.asm)
0010:063c      ComTable
Module: printer.obj(printer.asm)
0010:0412      uPrtNo
0010:0654      LptTable
Module: dsk.obj(D:\projects\fdos\SOURCE\ke2044\kernel\dsk.c)
0079:11a0      _LBA_WRITE_VERIFY
020a:03cf      getddt_
020a:03das     tmark_
020a:03ebs     tdelay_
020a:041f      _blk_driver
020a:0472s     play_dj_
020a:052ds     diskchange_
020a:0575s     mediachk_
020a:05cbs     RWzero_
020a:05f3s     Getlogdev_
020a:064cs     Setlogdev_
020a:067ds     blk_Open_
020a:0684s     blk_Close_
020a:0689s     blk_nondr_
020a:068ds     blk_Media_
020a:0697s     blk_noerr_
020a:069bs     getbpb_
020a:07ads     bldbpb_
020a:07cds     IoctlQueblk_
020a:0804s     Genblockio_
020a:0868s     GenblockioAbs_
020a:08b4s     Genblkdev_
020a:0cebs     blockio_
020a:0dd7s     blk_error_
020a:0de7s     dskerr_
020a:0e3as     LBA_to_CHS_
020a:0ec4s     DMA_max_transfer_
020a:0ee2s     LBA_Transfer_
0079:15d6s     _dispatch
0079:11a2s     _template_string
0079:0afa      _DiskTransferBuffer
Module: sysclk.obj(D:\projects\fdos\SOURCE\ke2044\kernel\sysclk.c)
020a:113es     ByteToBcd_
020a:115es     DayToBcd_
020a:118f      _clk_driver
0079:11d0      _DaysSinceEpoch
Module: asmsupt.obj(asmsupt.asm)
020a:13a0      MEMCPY
020a:13ac      FMEMCPY
020a:13b9      FMEMSET
020a:13cf      MEMSET
020a:13ee      FSTRCPY
020a:13fb      STRCPY
020a:140e      FSTRLEN
020a:1418      STRLEN
020a:142e      STRCHR
020a:1449      FSTRCHR
020a:1451      FMEMCHR
020a:1468      FSTRCMP
020a:1482      FMEMCMP
020a:148f      MEMCMP
Module: execrh.obj(execrh.asm)
020a:14a4      EXECRH
Module: nlssupt.obj(nlssupt.asm)
020a:14cd      _reloc_call_CharMapSrvc
Module: procsupt.obj(procsupt.asm)
0010:0203      _got_cbreak
020a:14e4      _exec_user
020a:1503      _spawn_int23
020a:1576      reloc_call_p_0
Module: dosidle.obj(dosidle.asm)
020a:158e      _DosIdle_hlt
020a:15a1      _DosIdle_int
Module: int2f.obj(int2f.asm)
020a:15f1      reloc_call_int2f_handler
020a:16ec      SHARE_CHECK
020a:16f5      SHARE_OPEN_CHECK
020a:170a      SHARE_CLOSE_FILE
020a:1713      SHARE_ACCESS_CHECK
020a:1735      SHARE_LOCK_UNLOCK
020a:173a      SHARE_IS_FILE_OPEN
020a:176c      NETWORK_REDIRECTOR_MX
020a:1807      CALL_NLS
020a:1827      FLOPPY_CHANGE
020a:9da9      UMB_GET_LARGEST
Module: nls_hc.obj(nls_hc.asm)
0079:160a      _nlsPackageHardcoded
0079:1633      _nlsCountryInfoHardcoded
0079:1634*     _nlsCntryInfoHardcoded
0079:1652*     _hcTablesStart
0079:1652*     _nlsUpcaseHardcoded
0079:16d4*     _nlsFUpcaseHardcoded
0079:1756*     _nlsFnameTermHardcoded
0079:176e*     _nlsCollHardcoded
0079:1870*     _nlsDBCSHardcoded
0079:187a*     _hcTablesEnd
Module: intr.obj(intr.asm)
020a:1834*     CALL_INTR
020a:189e      RES_DOSEXEC
020a:18ae      RES_READ
020a:9ddd      INIT_CALL_INTR
020a:9e4b      INIT_CALL_XMSCALL
020a:9e55      DETECTXMSDRIVER
020a:9e71      KEYCHECK
020a:9e76      INIT_DOSOPEN
020a:9e84      CLOSE
020a:9e8b      READ
020a:9e94      DUP2
020a:9e9c      LSEEK
020a:9ead      INIT_PSPSET
020a:9eb5      INIT_DOSEXEC
020a:9ec5      INIT_SETDRIVE
020a:9ecd      INIT_SWITCHAR
020a:9ed2      ALLOCMEM
020a:9ede      SET_DTA
Module: irqstack.obj(irqstack.asm)
020a:9efa      _init_stacks
Module: blockio.obj(D:\projects\fdos\SOURCE\ke2044\kernel\blockio.c)
020a:18bds     move_buffer_
020a:18f1s     searchblock_
020a:19c1      DeleteBlockInBufferCache_
020a:1a30      getblk_
020a:1aa4      setinvld_
020a:1ace      dirty_buffers_
020a:1b01      flush_buffers_
020a:1b38s     flush1_
020a:1bc8      flush_
020a:1bfd      dskxfer_
020a:1d89      AllocateHMASpace_
Module: chario.obj(D:\projects\fdos\SOURCE\ke2044\kernel\chario.c)
020a:1dfcs     CharRequest_
020a:1e61      BinaryCharIO_
020a:1e95s     CharIO_
020a:1ebes     CharCmd_
020a:1ed3s     Busy_
020a:1ef7      con_flush_
020a:1f00      sft_to_dev_
020a:1f2e      StdinBusy_
020a:1f7c      ndread_
020a:1f96      update_scr_pos_
020a:1fc1      cooked_write_
020a:2098      write_char_
020a:20ba      write_char_stdout_
020a:2119s     echo_char_
020a:2145s     destr_bs_
020a:2164      cooked_read_
020a:219cs     read_char_sft_dev_
020a:226ds     raw_get_char_
020a:227e      read_char_
020a:22a9s     read_char_check_break_
020a:22b2      read_char_stdin_
020a:2307      read_line_
020a:2596      read_line_handle_
Module: systime.obj(D:\projects\fdos\SOURCE\ke2044\kernel\systime.c)
020a:262a      is_leap_year_monthdays_
020a:263b+     DaysFromYearMonthDay_
020a:2675+     ExecuteClockDriverRequest_
020a:268c      DosGetTime_
020a:26b5      DosSetTime_
020a:2716      DosGetDate_
020a:277c      DosSetDate_
0079:187a+     _days
Module: error.obj(D:\projects\fdos\SOURCE\ke2044\kernel\error.c)
020a:2801      panic_
020a:2817      char_error_
020a:2840      block_error_
Module: break.obj(D:\projects\fdos\SOURCE\ke2044\kernel\break.c)
020a:2874      ctrl_break_pressed_
020a:2885      check_handle_break_
020a:28d1      handle_break_
Module: dosfns.obj(D:\projects\fdos\SOURCE\ke2044\kernel\dosfns.c)
020a:291d      get_cds_unvalidated_
020a:297a      get_cds1_
020a:2984      get_cds_
020a:2996      idx_to_sft__
020a:29f4      get_sft_idx_
020a:2a1c      get_sft_
020a:2a1f      idx_to_sft_
020a:2a3b      DosRWSft_
020a:2c2f+     SftSeek2_
020a:2ce7      SftSeek_
020a:2cf9      DosSeek_
020a:2d22s     get_free_hndl_
020a:2d54s     get_free_sft_
020a:2dbd      get_root_
020a:2de9s     ConvertPathNameToFCBName_
020a:2e00s     set_fcbname_
020a:2e0cs     DeviceOpenSft_
020a:2ec3      DosOpenSft_
020a:30ab      DosOpen_
020a:30f2      CloneHandle_
020a:311b      DosDup_
020a:3143      DosForceDup_
020a:31b3      DosCloseSft_
020a:3284      DosClose_
020a:32b8      DosGetFree_
020a:33b9      DosGetCuDir_
020a:3404      DosChangeDir_
020a:3476s     pop_dmp_
020a:34ce      DosFindFirst_
020a:3590      DosFindNext_
020a:3602      DosGetFtime_
020a:362c      DosSetFtimeSft_
020a:365e      DosGetFattr_
020a:36a1      DosSetFattr_
020a:3707      DosSelectDrv_
020a:3729      DosDelete_
020a:377d      DosRenameTrue_
020a:37de      DosRename_
020a:3830      DosMkRmdir_
020a:387e      DosLockUnlock_
020a:38df      IsDevice_
020a:39ab      IsShareInstalled_
020a:39ce      DosTruename_
020a:39f5s     remote_lock_unlock_
0079:11d2+     _share_installed
Module: fatdir.obj(D:\projects\fdos\SOURCE\ke2044\kernel\fatdir.c)
020a:3a28      dir_init_fnode_
020a:3a5a      dir_open_
020a:3b02s     swap_deleted_
020a:3b14      dir_read_
020a:3c34      dir_write_update_
020a:3d12      dos_findfirst_
020a:3d55      dos_findnext_
020a:3de7      ConvertName83ToNameSZ_
020a:3e66      ConvertNameSZToName83_
Module: fatfs.obj(D:\projects\fdos\SOURCE\ke2044\kernel\fatfs.c)
020a:3ea4s     time_encode_
020a:3eca      clus2phys_
020a:3eef      get_dpb_
020a:3f19s     init_direntry_
020a:3f4a      dos_open_
020a:404d      fcmp_wild_
020a:4072      dos_close_
020a:40b5      split_path_
020a:40d9      dir_exists_
020a:40e9      fcbmatch_
020a:40fds     find_fname_
020a:414e+     remove_lfn_entries_
020a:41a0s     merge_file_changes_
020a:42e2      dos_merge_file_changes_
020a:42eds     delete_dir_entry_
020a:4317      dos_delete_
020a:4336      dos_rmdir_
020a:43ec      dos_rename_
020a:44cfs     wipe_out_clusters_
020a:4517s     wipe_out_
020a:4535s     find_free_
020a:4560s     alloc_find_free_
020a:4591      dos_getdate_
020a:45c7      dos_gettime_
020a:45dcs     find_fat_free_
020a:4634s     clear_dir_
020a:46ac      dos_mkdir_
020a:47aes     extend_
020a:4818s     extend_dir_
020a:4859      map_cluster_
020a:4903s     dos_extend_
020a:4943      rwblock_
020a:4ccd      dos_free_
020a:4d18      dos_cd_
020a:4d4c      dos_getfattr_
020a:4d63      dos_setfattr_
020a:4db8      bpb_to_dpb_
020a:4ef0s     rqblockio_
020a:4f88      media_check_
020a:4ffcs     sft_to_fnode_
020a:509ds     fnode_to_sft_
020a:5132s     shrink_file_
Module: fattab.obj(D:\projects\fdos\SOURCE\ke2044\kernel\fattab.c)
020a:51f9+     clusterMessage_
020a:521a+     getFATblock_
020a:5290      link_fat_
020a:547a      next_cluster_
020a:54cd      is_free_cluster_
Module: fcbfns.obj(D:\projects\fdos\SOURCE\ke2044\kernel\fcbfns.c)
020a:54e1      FatGetDrvData_
020a:5538      FcbParseFname_
020a:56a5+     ParseSkipWh_
020a:56c0+     GetNameField_
020a:574ds     FcbNextRecord_
020a:576as     FcbRec_
020a:5794      FcbReadWrite_
020a:58b6      FcbGetFileSize_
020a:5948      FcbSetRandom_
020a:595fs     FcbCalcRec_
020a:598b      FcbRandomBlockIO_
020a:59dc      FcbRandomIO_
020a:5a23      FcbOpen_
020a:5af3s     ExtFcbToFcb_
020a:5b1ds     CommonFcbInit_
020a:5b37s     FcbNameInit_
020a:5b7c      FcbDelete_
020a:5c39      FcbRename_
020a:5da7      FcbClose_
020a:5e38      FcbCloseAll_
020a:5e71      FcbFindFirstNext_
0079:0cfes     _Dmatch
Module: inthndlr.obj(D:\projects\fdos\SOURCE\ke2044\kernel\inthndlr.c)
020a:5f9f      _int21_syscall
020a:6154      _int21_service
020a:6d47      _int2526_handler
020a:6ed0      _int2F_12_handler
0079:18ae      _os_release
0079:0d2a      _fnode
0079:0d96      _firstAvailableBuf
0079:0d9a      _ReturnAnyDosVersionExpected
0079:0d9b      _HaltCpuWhileIdle
Module: ioctl.obj(D:\projects\fdos\SOURCE\ke2044\kernel\ioctl.c)
020a:76a5      DosDevIOctl_
0079:18f0s     _cmd
Module: memmgr.obj(D:\projects\fdos\SOURCE\ke2044\kernel\memmgr.c)
020a:7980s     joinMCBs_
020a:79e3      adjust_far_
020a:7a18      DosMemAlloc_
020a:7c5b      DosMemLargest_
020a:7cb8      DosMemFree_
020a:7cf3      DosMemChange_
020a:7d9b      DosMemCheck_
020a:7e07      FreeProcessMem_
020a:7e62      DosUmbLink_
Module: task.obj(D:\projects\fdos\SOURCE\ke2044\kernel\task.c)
020a:7ee3      getvec_
020a:7efd      setvec_
020a:7f19      SftGetFsize_
020a:7f3as     SetverCompareFilename_
020a:7fa5s     SetverGetVersion_
020a:801ds     ChildEnv_
020a:80e3      new_psp_
020a:8131      child_psp_
020a:81fbs     patchPSP_
020a:8364s     load_transfer_
020a:8424s     ExecMemLargest_
020a:8460s     ExecMemAlloc_
020a:84d2+     DosComLoader_
020a:8699      return_user_
020a:877d+     DosExeLoader_
020a:8a08      DosExec_
020a:8ae5      _P_0
Module: newstuff.obj(D:\projects\fdos\SOURCE\ke2044\kernel\newstuff.c)
020a:8bdb      SetJFTSize_
020a:8c57      DosMkTmp_
020a:8d45      truename_
0079:1902s     __DirChars
Module: nls.obj(D:\projects\fdos\SOURCE\ke2044\kernel\nls.c)
020a:9497s     muxGo_
020a:94b0s     muxLoadPkg_
020a:9503s     muxBufGo_
020a:9516s     searchPackage_
020a:9560s     locateSubfct_
020a:9598s     cpyBuf_
020a:95b9s     upMMem_
020a:9604s     nlsGetData_
020a:965c*     nlsCPchange_
020a:9662s     nlsSetPackage_
020a:9694s     nlsLoadPackage_
020a:969es     DosLoadPackage_
020a:96c0s     nlsUpMem_
020a:96e0s     nlsFUpMem_
020a:96f6s     xUpMem_
020a:9725s     nlsIsDBCS_
020a:9764s     nlsYesNo_
020a:97b5      DosYesNo_
020a:97e7      DosUpMem_
020a:9801      _DosUpChar
020a:9814      DosUpString_
020a:9827      DosUpFMem_
020a:9857      DosUpFChar_
020a:9874      DosUpFString_
020a:9887      DosGetData_
020a:9915      DosGetCountryInformation_
020a:9928      DosSetCountry_
020a:9933      DosGetCodepage_
020a:994f      DosSetCodepage_
020a:995ds     DosSetPackage_
020a:996e      DosGetDBCS_
020a:997f      _syscall_MUX14
0079:11d4      _nlsInfo
Module: network.obj(D:\projects\fdos\SOURCE\ke2044\kernel\network.c)
020a:9a69      get_machine_name_
020a:9a7b      set_machine_name_
020a:9a92      network_redirector_fp_
020a:9aa0      network_redirector_
Module: prf.obj(D:\projects\fdos\SOURCE\ke2044\kernel\prf.c)
020a:9aac      put_console_
020a:9ac2      hexd_
020a:9b73      put_unsigned_
020a:9bb9      put_string_
Module: memdisk.obj(memdisk.asm)
020a:9f68*     _query_memdisk
Module: main.obj(D:\projects\fdos\SOURCE\ke2044\kernel\main.c)
0ff3:0000s     _copyright
020a:9fca      _FreeDOSmain
020a:a033+     InitializeAllBPBs_
020a:a068s     PSPInit_
020a:a13bs     setup_int_vectors_
020a:a1e1s     init_kernel_
020a:a2b4s     FsConfig_
020a:a3c9s     signon_
020a:a40es     kernel_
020a:a4f3s     update_dcb_
020a:a649      init_device_
020a:a7b0s     InitIO_
020a:a7d8*     init_fatal_
020a:a7e5s     InitPrinters_
020a:a825s     InitSerialPorts_
020a:a85fs     EmulatedDriveStatus_
020a:a895s     CheckContinueBootFromHarddisk_
0ff3:015a      _LoL
0ff3:015e      _InitKernelConfig
0ff3:0175      _kernel_command_line
0ff3:0275      _debugger_present
0ff3:1214      _kernel_command_line_length
Module: config.obj(D:\projects\fdos\SOURCE\ke2044\kernel\config.c)
0ff3:1216s     _szLine
0ff3:1316s     _szBuf
0ff3:1416s     _ErrorAlreadyPrinted
0ff3:1496+     _InstallCommands
0ff3:19aa+     _cfgFile
0ff3:19be      _lpTop
0ff3:19c2s     _MenuStruct
0ff3:1d14+     _numInstallCmds
0ff3:1d16+     _pLineStart
0ff3:1d18+     _Menus
0ff3:1d1a+     _nCurChain
0ff3:1d1c+     _MenuLine
0ff3:1d1e+     _nFileDesc
0ff3:1d20s     _nCfgLine
0ff3:1d22s     _base_seg
0ff3:1d24+     _umb_start
0ff3:1d26s     _umb_base_seg
0ff3:02b2+     _MenuColor
0ff3:02b4s     _envp
0ff3:02b8      _Config
0ff3:02cb+     _MenuTimeout
0ff3:02cds     _commands
020a:a92es     WriteMenuLine_
020a:a9b3s     DeselectLastLine_
020a:a9d3s     SelectLine_
020a:a9f2+     findend_
020a:aa1b      PreConfig_
020a:aa5f      PreConfig2_
020a:ab06      PostConfig_
020a:ac01      configDone_
020a:ac44s     prev_mcb_
020a:ac6as     umb_init_
020a:adb8s     check_config_commandline_
020a:ae19      DoConfig_
020a:b009s     LookUp_
020a:b02d      GetBiosKey_
020a:b097s     SkipLine_
020a:b1b0s     GetNumArg_
020a:b239+     GetStringArg_
020a:b241s     Config_Buffers_
020a:b25bs     CfgBuffersHigh_
020a:b270s     sysScreenMode_
020a:b2bds     sysVersion_
020a:b337s     Files_
020a:b360s     FilesHigh_
020a:b369s     CfgLastdrive_
020a:b3a7s     CfgLastdriveHigh_
020a:b3b0s     Dosmem_
020a:b4a0s     DosData_
020a:b4c7s     CfgSwitchar_
020a:b4das     CfgSwitches_
020a:b5a7s     Fcbs_
020a:b5ecs     CfgKeyBuf_
020a:b69es     LoadCountryInfo_
020a:b983s     Country_
020a:b9fbs     Stacks_
020a:ba5es     StacksHigh_
020a:ba67s     InitPgmHigh_
020a:ba70s     InitPgm_
020a:ba9bs     CfgBreak_
020a:bac3s     Numlock_
020a:baefs     DeviceHigh_
020a:bb36s     Device_
020a:bb49s     LoadDevice_
020a:bc2bs     CfgFailure_
020a:bca4      KernelAllocPara_
020a:bd70      KernelAlloc_
020a:bdc0s     AlignParagraph_
020a:bddcs     iswh_
020a:bdf3s     skipwh_
020a:be08s     scan_
020a:beb7s     isnum_
020a:bec6s     toupper_
020a:bed1s     strupr_
020a:bee6s     mcb_init_
020a:beeds     mcb_init_copy_
020a:befes     mumcb_init_
020a:bf07+     strcat_
020a:bf18s     strcaseequal_
020a:bf40s     config_init_buffers_
020a:c094s     SetAnyDos_
020a:c0a2s     SetIdleHalt_
020a:c0c3s     CfgIgnore_
020a:c0c4s     CfgMenu_
020a:c149s     CfgMenuEsc_
020a:c169s     DoMenu_
020a:c397s     CfgMenuDefault_
020a:c3dcs     ClearScreen_
020a:c443s     CfgMenuColor_
020a:c49fs     LoadCountryInfoHardCoded_
020a:c54fs     _CmdInstall_
020a:c596s     CmdInstall_
020a:c59es     CmdInstallHigh_
020a:c5a4s     CmdChain_
020a:c5f1s     InstallExec_
020a:c677s     free_
020a:c693s     set_strategy_
020a:c6a3      DoInstall_
020a:c70bs     searchvar_
020a:c742s     deletevar_
020a:c76fs     CmdSet_
0ff3:0412+     _specificCountriesSupported
0ff3:1d28+     _UMB_top
0ff3:1d2a+     _ebda_size
0ff3:1d2c+     _UmbState
0ff3:1d2e+     _nMenuLine
0ff3:1d30      _ram_top
0ff3:1d32+     _HMAState
0ff3:1d33+     _askThisSingleCommand
0ff3:1d34+     _MenuSelected
0ff3:1d35+     _DontAskThisSingleCommand
0ff3:1d36      _singleStep
0ff3:1d37      _SkipAllConfig
Module: initoem.obj(D:\projects\fdos\SOURCE\ke2044\kernel\initoem.c)
020a:c857      init_oem_
020a:c86f      movebda_
020a:c899      ebdasize_
Module: inithma.obj(D:\projects\fdos\SOURCE\ke2044\kernel\inithma.c)
020a:c8eds     EnabledA20_
020a:c901*     EnableHMA_
020a:c934      MoveKernelToHMA_
020a:c9bds     InstallVDISK_
020a:c9ea      HMAalloc_
020a:ca28      MoveKernel_
0ff3:0588+     _CurrentKernelSegment
0ff3:201c      _HMAFree
0ff3:201e+     _HMAclaimed
0ff3:201f+     _DosLoadedInHMA
Module: dyninit.obj(D:\projects\fdos\SOURCE\ke2044\kernel\dyninit.c)
020a:cb5a      DynAlloc_
020a:cba2*     DynFree_
020a:cbb6      DynLast_
Module: iprf.obj(D:\projects\fdos\SOURCE\ke2044\kernel\iprf.c)
020a:cbc9+     init_put_console_
020a:cbdfs     init_handle_char_
020a:cbfes     init_ltob_
020a:cc80      init_printf_
020a:cc97      init_sprintf_
020a:ccdbs     init_do_printf_
0ff3:058as     _init_charp
Module: initdisk.obj(D:\projects\fdos\SOURCE\ke2044\kernel\initdisk.c)
020a:ce65+     init_readdasd_
020a:ce95+     init_getdriveparm_
020a:cf1f+     init_LBA_to_CHS_
020a:cf91+     printCHS_
020a:cfb0+     CalculateFATData_
020a:d129s     push_ddt_
020a:d16e+     DosDefinePartition_
020a:d2fbs     LBA_Get_Drive_Parameters_
020a:d523s     ConvCHSToIntern_
020a:d54d+     ConvPartTableEntryToIntern_
020a:d5be+     is_suspect_
020a:d5fa+     print_warning_suspect_
020a:d63a+     ScanForPrimaryPartitions_
020a:d835+     Read1LBASector_
020a:d96c+     ProcessDisk_
020a:dacb+     BIOS_nrdrives_
020a:db01+     BIOS_drive_reset_
020a:db1ds     make_ddt_
020a:db81+     ReadAllPartitionTables_
020a:dd5b      dsk_init_
0ff3:058c+     _ExtLBAForce
0ff3:058e+     _floppy_bpbs
0ff3:2020+     _InitDiskTransferBuffer
0ff3:2220+     _nUnits
Module: initclk.obj(D:\projects\fdos\SOURCE\ke2044\kernel\initclk.c)
020a:dd78s     InitBcdToByte_
020a:dd92      Init_clk_driver_
Module: cpu.obj(cpu.asm)
020a:de39      _query_cpu
Module: ..\lib\device.lib(rdpcclk.asm)
020a:9bcc      READPCCLOCK
Module: ..\lib\device.lib(floppy.asm)
020a:9bdc      FL_RESET
020a:9be7      FL_DISKCHANGED
020a:9bff      FL_FORMAT
020a:9c03      FL_READ
020a:9c07      FL_VERIFY
020a:9c0b      FL_WRITE
020a:9c3b      FL_LBA_READWRITE
020a:9c55      FL_READKEY
020a:9c5a      FL_SETDISKTYPE
020a:9c67      FL_SETMEDIATYPE
Module: ..\lib\device.lib(wrpcclk.asm)
020a:9c90      WRITEPCCLOCK
Module: ..\lib\device.lib(wratclk.asm)
020a:9c99      WRITEATCLOCK


                        +---------------------+
                        |   Module Segments   |
                        +---------------------+

! = 32-bit segment
c = initialized communal data

Module          Segment               Class           Address         Size
======          =======               =====           =======         ====

kernel.asm      PSP                   PSP            0000:0000        00000100
                _IRQTEXT              LCODE          0010:0000        00000000
                _LOWTEXT              LCODE          0020:0000        0000002e
                _IO_TEXT              LCODE          0031:0002        00000000
                _IO_FIXED_DATA        LCODE          0064:000a        00000000
                _TEXT                 LCODE          0078:0007        00000000
                _FIXED_DATA           FDATA          0079:0000        00000afa
                _BSS                  BSS            0128:000a        00000000
                _DATA                 DATA           0152:000c        00000400
                _DATAEND              DATA           0197:0004        000000c0
                CONST                 DATA           01a3:0004        000000dd
                CONST2                DATA           01d6:0006        00000000
                DCONST                DCONST         0209:000e        00000000
                DYN_DATA              DYN_DATA       0209:000e        00000002
                HMA_TEXT_START        CODE           020a:0000        00000000
                HMA_TEXT              CODE           020a:0000        000000d5
                HMA_TEXT_END          CODE           0bd6:0000        00000000
                INIT_TEXT_START       CODE           0bd6:0000        00000000
                INIT_TEXT             CODE           0bd6:0000        000000e9
                INIT_TEXT_END         CODE           0ff3:0000        00000000
                ID_B                  FAR_DATA       0ff3:0000        00000000
                I_DATA                FAR_DATA       0ff3:0000        00000000
                ICONST                FAR_DATA       1055:0004        00000000
                ICONST2               FAR_DATA       1114:0004        00000000
                ID_E                  FAR_DATA       1114:0004        00000000
                IB_B                  FAR_DATA       1114:0004        00000000
                I_BSS                 FAR_DATA       1114:0004        00000000
                IB_E                  FAR_DATA       1219:000a        00000410
                _STACK                STACK          125a:000a        00000000
entry.asm       PSP                   PSP            0000:0100        00000000
                _IRQTEXT              LCODE          0010:0000        00000000
                _LOWTEXT              LCODE          0020:002e        00000000
                _IO_TEXT              LCODE          0031:0002        00000000
                _IO_FIXED_DATA        LCODE          0064:000a        00000000
                _TEXT                 LCODE          0078:0007        00000000
                _FIXED_DATA           FDATA          0079:0b00        00000000
                _BSS                  BSS            0128:000a        00000000
                _DATA                 DATA           0152:040c        00000000
                _DATAEND              DATA           0197:00c4        00000000
                CONST                 DATA           01a3:00e2        00000000
                CONST2                DATA           01d6:0006        00000000
                DCONST                DCONST         0209:000e        00000000
                DYN_DATA              DYN_DATA       0209:0010        00000000
                HMA_TEXT_START        CODE           020a:0000        00000000
                HMA_TEXT              CODE           020a:00d5        000002fa
                HMA_TEXT_END          CODE           0bd6:0000        00000000
                INIT_TEXT_START       CODE           0bd6:0000        00000000
                INIT_TEXT             CODE           0bd6:00e9        00000000
                INIT_TEXT_END         CODE           0ff3:0000        00000000
                ID_B                  FAR_DATA       0ff3:0000        00000000
                I_DATA                FAR_DATA       0ff3:0000        00000000
                ICONST                FAR_DATA       1055:0004        00000000
                ICONST2               FAR_DATA       1114:0004        00000000
                ID_E                  FAR_DATA       1114:0004        00000000
                IB_B                  FAR_DATA       1114:0004        00000000
                I_BSS                 FAR_DATA       1114:0004        00000000
                IB_E                  FAR_DATA       1219:041a        00000000
io.asm          PSP                   PSP            0000:0100        00000000
                _IRQTEXT              LCODE          0010:0000        00000000
                _LOWTEXT              LCODE          0020:002e        00000000
                _IO_TEXT              LCODE          0031:0002        00000156
                _IO_FIXED_DATA        LCODE          0064:000a        000000d9
                _TEXT                 LCODE          0078:0007        00000000
                _FIXED_DATA           FDATA          0079:0b00        00000000
                _BSS                  BSS            0128:000a        00000000
                _DATA                 DATA           0152:040c        00000000
                _DATAEND              DATA           0197:00c4        00000000
                CONST                 DATA           01a3:00e2        00000000
                CONST2                DATA           01d6:0006        00000000
                DCONST                DCONST         0209:000e        00000000
                DYN_DATA              DYN_DATA       0209:0010        00000000
                HMA_TEXT_START        CODE           020a:0000        00000000
                HMA_TEXT              CODE           020a:03cf        00000000
                HMA_TEXT_END          CODE           0bd6:0000        00000000
                INIT_TEXT_START       CODE           0bd6:0000        00000000
                INIT_TEXT             CODE           0bd6:00e9        00000000
                INIT_TEXT_END         CODE           0ff3:0000        00000000
                ID_B                  FAR_DATA       0ff3:0000        00000000
                I_DATA                FAR_DATA       0ff3:0000        00000000
                ICONST                FAR_DATA       1055:0004        00000000
                ICONST2               FAR_DATA       1114:0004        00000000
                ID_E                  FAR_DATA       1114:0004        00000000
                IB_B                  FAR_DATA       1114:0004        00000000
                I_BSS                 FAR_DATA       1114:0004        00000000
                IB_E                  FAR_DATA       1219:041a        00000000
console.asm     PSP                   PSP            0000:0100        00000000
                _IRQTEXT              LCODE          0010:0000        00000000
                _LOWTEXT              LCODE          0020:002e        000000d5
                _IO_TEXT              LCODE          0031:0158        00000000
                _IO_FIXED_DATA        LCODE          0064:00e4        00000017
                _TEXT                 LCODE          0078:0007        00000000
                _FIXED_DATA           FDATA          0079:0b00        00000000
                _BSS                  BSS            0128:000a        00000000
                _DATA                 DATA           0152:040c        00000000
                _DATAEND              DATA           0197:00c4        00000000
                CONST                 DATA           01a3:00e2        00000000
                CONST2                DATA           01d6:0006        00000000
                DCONST                DCONST         0209:000e        00000000
                DYN_DATA              DYN_DATA       0209:0010        00000000
                HMA_TEXT_START        CODE           020a:0000        00000000
                HMA_TEXT              CODE           020a:03cf        00000000
                HMA_TEXT_END          CODE           0bd6:0000        00000000
                INIT_TEXT_START       CODE           0bd6:0000        00000000
                INIT_TEXT             CODE           0bd6:00e9        00000000
                INIT_TEXT_END         CODE           0ff3:0000        00000000
                ID_B                  FAR_DATA       0ff3:0000        00000000
                I_DATA                FAR_DATA       0ff3:0000        00000000
                ICONST                FAR_DATA       1055:0004        00000000
                ICONST2               FAR_DATA       1114:0004        00000000
                ID_E                  FAR_DATA       1114:0004        00000000
                IB_B                  FAR_DATA       1114:0004        00000000
                I_BSS                 FAR_DATA       1114:0004        00000000
                IB_E                  FAR_DATA       1219:041a        00000000
serial.asm      PSP                   PSP            0000:0100        00000000
                _IRQTEXT              LCODE          0010:0000        00000000
                _LOWTEXT              LCODE          0020:0103        00000000
                _IO_TEXT              LCODE          0031:0158        000000aa
                _IO_FIXED_DATA        LCODE          0064:00fc        00000017
                _TEXT                 LCODE          0078:0007        00000000
                _FIXED_DATA           FDATA          0079:0b00        00000000
                _BSS                  BSS            0128:000a        00000000
                _DATA                 DATA           0152:040c        00000004
                _DATAEND              DATA           0197:00c4        00000000
                CONST                 DATA           01a3:00e2        00000000
                CONST2                DATA           01d6:0006        00000000
                DCONST                DCONST         0209:000e        00000000
                DYN_DATA              DYN_DATA       0209:0010        00000000
                HMA_TEXT_START        CODE           020a:0000        00000000
                HMA_TEXT              CODE           020a:03cf        00000000
                HMA_TEXT_END          CODE           0bd6:0000        00000000
                INIT_TEXT_START       CODE           0bd6:0000        00000000
                INIT_TEXT             CODE           0bd6:00e9        00000000
                INIT_TEXT_END         CODE           0ff3:0000        00000000
                ID_B                  FAR_DATA       0ff3:0000        00000000
                I_DATA                FAR_DATA       0ff3:0000        00000000
                ICONST                FAR_DATA       1055:0004        00000000
                ICONST2               FAR_DATA       1114:0004        00000000
                ID_E                  FAR_DATA       1114:0004        00000000
                IB_B                  FAR_DATA       1114:0004        00000000
                I_BSS                 FAR_DATA       1114:0004        00000000
                IB_E                  FAR_DATA       1219:041a        00000000
printer.asm     PSP                   PSP            0000:0100        00000000
                _IRQTEXT              LCODE          0010:0000        00000000
                _LOWTEXT              LCODE          0020:0103        00000000
                _IO_TEXT              LCODE          0031:0202        000000e4
                _IO_FIXED_DATA        LCODE          0064:0114        00000033
                _TEXT                 LCODE          0078:0007        00000000
                _FIXED_DATA           FDATA          0079:0b00        00000000
                _BSS                  BSS            0128:000a        00000000
                _DATA                 DATA           0152:0410        00000000
                _DATAEND              DATA           0197:00c4        00000000
                CONST                 DATA           01a3:00e2        00000000
                CONST2                DATA           01d6:0006        00000000
                DCONST                DCONST         0209:000e        00000000
                DYN_DATA              DYN_DATA       0209:0010        00000000
                HMA_TEXT_START        CODE           020a:0000        00000000
                HMA_TEXT              CODE           020a:03cf        00000000
                HMA_TEXT_END          CODE           0bd6:0000        00000000
                INIT_TEXT_START       CODE           0bd6:0000        00000000
                INIT_TEXT             CODE           0bd6:00e9        00000000
                INIT_TEXT_END         CODE           0ff3:0000        00000000
                ID_B                  FAR_DATA       0ff3:0000        00000000
                I_DATA                FAR_DATA       0ff3:0000        00000000
                ICONST                FAR_DATA       1055:0004        00000000
                ICONST2               FAR_DATA       1114:0004        00000000
                ID_E                  FAR_DATA       1114:0004        00000000
                IB_B                  FAR_DATA       1114:0004        00000000
                I_BSS                 FAR_DATA       1114:0004        00000000
                IB_E                  FAR_DATA       1219:041a        00000000
D:\projects\fdos\SOURCE\ke2044\kernel\dsk.c
                HMA_TEXT              CODE           020a:03cf        00000d6f
                CONST                 DATA           01a3:00e2        0000007e
                CONST2                DATA           01d6:0006        00000034
                _DATA                 DATA           0152:0410        0000002f
                _BSS                  BSS            0128:000a        00000200
D:\projects\fdos\SOURCE\ke2044\kernel\sysclk.c
                HMA_TEXT              CODE           020a:113e        00000248
                CONST                 DATA           01a3:0160        00000000
                CONST2                DATA           01d6:003a        00000000
                _DATA                 DATA           0152:0440        00000002
asmsupt.asm     PSP                   PSP            0000:0100        00000000
                _IRQTEXT              LCODE          0010:0000        00000000
                _LOWTEXT              LCODE          0020:0103        00000000
                _IO_TEXT              LCODE          0031:02e6        00000000
                _IO_FIXED_DATA        LCODE          0064:0148        00000000
                _TEXT                 LCODE          0078:0007        00000000
                _FIXED_DATA           FDATA          0079:0b00        00000000
                _BSS                  BSS            0128:020a        00000000
                _DATA                 DATA           0152:0442        00000000
                _DATAEND              DATA           0197:00c4        00000000
                CONST                 DATA           01a3:0160        00000000
                CONST2                DATA           01d6:003a        00000000
                DCONST                DCONST         0209:000e        00000000
                DYN_DATA              DYN_DATA       0209:0010        00000000
                HMA_TEXT_START        CODE           020a:0000        00000000
                HMA_TEXT              CODE           020a:1386        0000011e
                HMA_TEXT_END          CODE           0bd6:0000        00000000
                INIT_TEXT_START       CODE           0bd6:0000        00000000
                INIT_TEXT             CODE           0bd6:00e9        00000000
                INIT_TEXT_END         CODE           0ff3:0000        00000000
                ID_B                  FAR_DATA       0ff3:0000        00000000
                I_DATA                FAR_DATA       0ff3:0000        00000000
                ICONST                FAR_DATA       1055:0004        00000000
                ICONST2               FAR_DATA       1114:0004        00000000
                ID_E                  FAR_DATA       1114:0004        00000000
                IB_B                  FAR_DATA       1114:0004        00000000
                I_BSS                 FAR_DATA       1114:0004        00000000
                IB_E                  FAR_DATA       1219:041a        00000000
execrh.asm      PSP                   PSP            0000:0100        00000000
                _IRQTEXT              LCODE          0010:0000        00000000
                _LOWTEXT              LCODE          0020:0103        00000000
                _IO_TEXT              LCODE          0031:02e6        00000000
                _IO_FIXED_DATA        LCODE          0064:0148        00000000
                _TEXT                 LCODE          0078:0007        00000000
                _FIXED_DATA           FDATA          0079:0b00        00000000
                _BSS                  BSS            0128:020a        00000000
                _DATA                 DATA           0152:0442        00000000
                _DATAEND              DATA           0197:00c4        00000000
                CONST                 DATA           01a3:0160        00000000
                CONST2                DATA           01d6:003a        00000000
                DCONST                DCONST         0209:000e        00000000
                DYN_DATA              DYN_DATA       0209:0010        00000000
                HMA_TEXT_START        CODE           020a:0000        00000000
                HMA_TEXT              CODE           020a:14a4        00000029
                HMA_TEXT_END          CODE           0bd6:0000        00000000
                INIT_TEXT_START       CODE           0bd6:0000        00000000
                INIT_TEXT             CODE           0bd6:00e9        00000000
                INIT_TEXT_END         CODE           0ff3:0000        00000000
                ID_B                  FAR_DATA       0ff3:0000        00000000
                I_DATA                FAR_DATA       0ff3:0000        00000000
                ICONST                FAR_DATA       1055:0004        00000000
                ICONST2               FAR_DATA       1114:0004        00000000
                ID_E                  FAR_DATA       1114:0004        00000000
                IB_B                  FAR_DATA       1114:0004        00000000
                I_BSS                 FAR_DATA       1114:0004        00000000
                IB_E                  FAR_DATA       1219:041a        00000000
nlssupt.asm     PSP                   PSP            0000:0100        00000000
                _IRQTEXT              LCODE          0010:0000        00000000
                _LOWTEXT              LCODE          0020:0103        00000000
                _IO_TEXT              LCODE          0031:02e6        00000000
                _IO_FIXED_DATA        LCODE          0064:0148        00000000
                _TEXT                 LCODE          0078:0007        00000000
                _FIXED_DATA           FDATA          0079:0b00        00000000
                _BSS                  BSS            0128:020a        00000000
                _DATA                 DATA           0152:0442        00000000
                _DATAEND              DATA           0197:00c4        00000000
                CONST                 DATA           01a3:0160        00000000
                CONST2                DATA           01d6:003a        00000000
                DCONST                DCONST         0209:000e        00000000
                DYN_DATA              DYN_DATA       0209:0010        00000000
                HMA_TEXT_START        CODE           020a:0000        00000000
                HMA_TEXT              CODE           020a:14cd        00000017
                HMA_TEXT_END          CODE           0bd6:0000        00000000
                INIT_TEXT_START       CODE           0bd6:0000        00000000
                INIT_TEXT             CODE           0bd6:00e9        00000000
                INIT_TEXT_END         CODE           0ff3:0000        00000000
                ID_B                  FAR_DATA       0ff3:0000        00000000
                I_DATA                FAR_DATA       0ff3:0000        00000000
                ICONST                FAR_DATA       1055:0004        00000000
                ICONST2               FAR_DATA       1114:0004        00000000
                ID_E                  FAR_DATA       1114:0004        00000000
                IB_B                  FAR_DATA       1114:0004        00000000
                I_BSS                 FAR_DATA       1114:0004        00000000
                IB_E                  FAR_DATA       1219:041a        00000000
procsupt.asm    PSP                   PSP            0000:0100        00000000
                _IRQTEXT              LCODE          0010:0000        00000000
                _LOWTEXT              LCODE          0020:0103        0000000f
                _IO_TEXT              LCODE          0031:02e6        00000000
                _IO_FIXED_DATA        LCODE          0064:0148        00000000
                _TEXT                 LCODE          0078:0007        00000000
                _FIXED_DATA           FDATA          0079:0b00        00000000
                _BSS                  BSS            0128:020a        00000000
                _DATA                 DATA           0152:0442        00000000
                _DATAEND              DATA           0197:00c4        00000000
                CONST                 DATA           01a3:0160        00000000
                CONST2                DATA           01d6:003a        00000000
                DCONST                DCONST         0209:000e        00000000
                DYN_DATA              DYN_DATA       0209:0010        00000000
                HMA_TEXT_START        CODE           020a:0000        00000000
                HMA_TEXT              CODE           020a:14e4        000000aa
                HMA_TEXT_END          CODE           0bd6:0000        00000000
                INIT_TEXT_START       CODE           0bd6:0000        00000000
                INIT_TEXT             CODE           0bd6:00e9        00000000
                INIT_TEXT_END         CODE           0ff3:0000        00000000
                ID_B                  FAR_DATA       0ff3:0000        00000000
                I_DATA                FAR_DATA       0ff3:0000        00000000
                ICONST                FAR_DATA       1055:0004        00000000
                ICONST2               FAR_DATA       1114:0004        00000000
                ID_E                  FAR_DATA       1114:0004        00000000
                IB_B                  FAR_DATA       1114:0004        00000000
                I_BSS                 FAR_DATA       1114:0004        00000000
                IB_E                  FAR_DATA       1219:041a        00000000
dosidle.asm     PSP                   PSP            0000:0100        00000000
                _IRQTEXT              LCODE          0010:0000        00000000
                _LOWTEXT              LCODE          0020:0112        00000000
                _IO_TEXT              LCODE          0031:02e6        00000000
                _IO_FIXED_DATA        LCODE          0064:0148        00000000
                _TEXT                 LCODE          0078:0007        00000000
                _FIXED_DATA           FDATA          0079:0b00        00000000
                _BSS                  BSS            0128:020a        00000000
                _DATA                 DATA           0152:0442        00000000
                _DATAEND              DATA           0197:00c4        00000000
                CONST                 DATA           01a3:0160        00000000
                CONST2                DATA           01d6:003a        00000000
                DCONST                DCONST         0209:000e        00000000
                DYN_DATA              DYN_DATA       0209:0010        00000000
                HMA_TEXT_START        CODE           020a:0000        00000000
                HMA_TEXT              CODE           020a:158e        00000063
                HMA_TEXT_END          CODE           0bd6:0000        00000000
                INIT_TEXT_START       CODE           0bd6:0000        00000000
                INIT_TEXT             CODE           0bd6:00e9        00000000
                INIT_TEXT_END         CODE           0ff3:0000        00000000
                ID_B                  FAR_DATA       0ff3:0000        00000000
                I_DATA                FAR_DATA       0ff3:0000        00000000
                ICONST                FAR_DATA       1055:0004        00000000
                ICONST2               FAR_DATA       1114:0004        00000000
                ID_E                  FAR_DATA       1114:0004        00000000
                IB_B                  FAR_DATA       1114:0004        00000000
                I_BSS                 FAR_DATA       1114:0004        00000000
                IB_E                  FAR_DATA       1219:041a        00000000
int2f.asm       PSP                   PSP            0000:0100        00000000
                _IRQTEXT              LCODE          0010:0000        00000000
                _LOWTEXT              LCODE          0020:0112        00000000
                _IO_TEXT              LCODE          0031:02e6        00000000
                _IO_FIXED_DATA        LCODE          0064:0148        00000000
                _TEXT                 LCODE          0078:0007        00000000
                _FIXED_DATA           FDATA          0079:0b00        00000000
                _BSS                  BSS            0128:020a        00000000
                _DATA                 DATA           0152:0442        00000000
                _DATAEND              DATA           0197:00c4        00000000
                CONST                 DATA           01a3:0160        00000000
                CONST2                DATA           01d6:003a        00000000
                DCONST                DCONST         0209:000e        00000000
                DYN_DATA              DYN_DATA       0209:0010        00000000
                HMA_TEXT_START        CODE           020a:0000        00000000
                HMA_TEXT              CODE           020a:15f1        00000243
                HMA_TEXT_END          CODE           0bd6:0000        00000000
                INIT_TEXT_START       CODE           0bd6:0000        00000000
                INIT_TEXT             CODE           0bd6:00e9        00000034
                INIT_TEXT_END         CODE           0ff3:0000        00000000
                ID_B                  FAR_DATA       0ff3:0000        00000000
                I_DATA                FAR_DATA       0ff3:0000        00000000
                ICONST                FAR_DATA       1055:0004        00000000
                ICONST2               FAR_DATA       1114:0004        00000000
                ID_E                  FAR_DATA       1114:0004        00000000
                IB_B                  FAR_DATA       1114:0004        00000000
                I_BSS                 FAR_DATA       1114:0004        00000000
                IB_E                  FAR_DATA       1219:041a        00000000
nls_hc.asm      PSP                   PSP            0000:0100        00000000
                _IRQTEXT              LCODE          0010:0000        00000000
                _LOWTEXT              LCODE          0020:0112        00000000
                _IO_TEXT              LCODE          0031:02e6        00000000
                _IO_FIXED_DATA        LCODE          0064:0148        00000000
                _TEXT                 LCODE          0078:0007        00000000
                _FIXED_DATA           FDATA          0079:0b00        00000000
                _BSS                  BSS            0128:020a        00000000
                _DATA                 DATA           0152:0442        00000000
                _DATAEND              DATA           0197:00c4        00000000
                CONST                 DATA           01a3:0160        00000000
                CONST2                DATA           01d6:003a        00000270
                DCONST                DCONST         0209:000e        00000000
                DYN_DATA              DYN_DATA       0209:0010        00000000
                HMA_TEXT_START        CODE           020a:0000        00000000
                HMA_TEXT              CODE           020a:1834        00000000
                HMA_TEXT_END          CODE           0bd6:0000        00000000
                INIT_TEXT_START       CODE           0bd6:0000        00000000
                INIT_TEXT             CODE           0bd6:011d        00000000
                INIT_TEXT_END         CODE           0ff3:0000        00000000
                ID_B                  FAR_DATA       0ff3:0000        00000000
                I_DATA                FAR_DATA       0ff3:0000        00000000
                ICONST                FAR_DATA       1055:0004        00000000
                ICONST2               FAR_DATA       1114:0004        00000000
                ID_E                  FAR_DATA       1114:0004        00000000
                IB_B                  FAR_DATA       1114:0004        00000000
                I_BSS                 FAR_DATA       1114:0004        00000000
                IB_E                  FAR_DATA       1219:041a        00000000
apisupt.asm     PSP                   PSP            0000:0100        00000000
                _IRQTEXT              LCODE          0010:0000        00000000
                _LOWTEXT              LCODE          0020:0112        00000000
                _IO_TEXT              LCODE          0031:02e6        00000000
                _IO_FIXED_DATA        LCODE          0064:0148        00000000
                _TEXT                 LCODE          0078:0007        00000000
                _FIXED_DATA           FDATA          0079:0b00        00000000
                _BSS                  BSS            0128:020a        00000000
                _DATA                 DATA           0152:0442        00000000
                _DATAEND              DATA           0197:00c4        00000000
                CONST                 DATA           01a3:0160        00000000
                CONST2                DATA           01d6:02aa        00000000
                DCONST                DCONST         0209:000e        00000000
                DYN_DATA              DYN_DATA       0209:0010        00000000
                HMA_TEXT_START        CODE           020a:0000        00000000
                HMA_TEXT              CODE           020a:1834        00000000
                HMA_TEXT_END          CODE           0bd6:0000        00000000
                INIT_TEXT_START       CODE           0bd6:0000        00000000
                INIT_TEXT             CODE           0bd6:011d        00000000
                INIT_TEXT_END         CODE           0ff3:0000        00000000
                ID_B                  FAR_DATA       0ff3:0000        00000000
                I_DATA                FAR_DATA       0ff3:0000        00000000
                ICONST                FAR_DATA       1055:0004        00000000
                ICONST2               FAR_DATA       1114:0004        00000000
                ID_E                  FAR_DATA       1114:0004        00000000
                IB_B                  FAR_DATA       1114:0004        00000000
                I_BSS                 FAR_DATA       1114:0004        00000000
                IB_E                  FAR_DATA       1219:041a        00000000
intr.asm        PSP                   PSP            0000:0100        00000000
                _IRQTEXT              LCODE          0010:0000        00000000
                _LOWTEXT              LCODE          0020:0112        00000000
                _IO_TEXT              LCODE          0031:02e6        00000000
                _IO_FIXED_DATA        LCODE          0064:0148        00000000
                _TEXT                 LCODE          0078:0007        00000000
                _FIXED_DATA           FDATA          0079:0b00        00000000
                _BSS                  BSS            0128:020a        00000000
                _DATA                 DATA           0152:0442        00000000
                _DATAEND              DATA           0197:00c4        00000000
                CONST                 DATA           01a3:0160        00000000
                CONST2                DATA           01d6:02aa        00000000
                DCONST                DCONST         0209:000e        00000000
                DYN_DATA              DYN_DATA       0209:0010        00000000
                HMA_TEXT_START        CODE           020a:0000        00000000
                HMA_TEXT              CODE           020a:1834        00000089
                HMA_TEXT_END          CODE           0bd6:0000        00000000
                INIT_TEXT_START       CODE           0bd6:0000        00000000
                INIT_TEXT             CODE           0bd6:011d        0000010e
                INIT_TEXT_END         CODE           0ff3:0000        00000000
                ID_B                  FAR_DATA       0ff3:0000        00000000
                I_DATA                FAR_DATA       0ff3:0000        00000000
                ICONST                FAR_DATA       1055:0004        00000000
                ICONST2               FAR_DATA       1114:0004        00000000
                ID_E                  FAR_DATA       1114:0004        00000000
                IB_B                  FAR_DATA       1114:0004        00000000
                I_BSS                 FAR_DATA       1114:0004        00000000
                IB_E                  FAR_DATA       1219:041a        00000000
irqstack.asm    PSP                   PSP            0000:0100        00000000
                _IRQTEXT              LCODE          0010:0000        00000100
                _LOWTEXT              LCODE          0020:0112        00000000
                _IO_TEXT              LCODE          0031:02e6        00000053
                _IO_FIXED_DATA        LCODE          0064:0148        00000000
                _TEXT                 LCODE          0078:0007        00000000
                _FIXED_DATA           FDATA          0079:0b00        00000000
                _BSS                  BSS            0128:020a        00000000
                _DATA                 DATA           0152:0442        00000000
                _DATAEND              DATA           0197:00c4        00000000
                CONST                 DATA           01a3:0160        00000000
                CONST2                DATA           01d6:02aa        00000000
                DCONST                DCONST         0209:000e        00000000
                DYN_DATA              DYN_DATA       0209:0010        00000000
                HMA_TEXT_START        CODE           020a:0000        00000000
                HMA_TEXT              CODE           020a:18bd        00000000
                HMA_TEXT_END          CODE           0bd6:0000        00000000
                INIT_TEXT_START       CODE           0bd6:0000        00000000
                INIT_TEXT             CODE           0bd6:022b        0000007d
                INIT_TEXT_END         CODE           0ff3:0000        00000000
                ID_B                  FAR_DATA       0ff3:0000        00000000
                I_DATA                FAR_DATA       0ff3:0000        00000000
                ICONST                FAR_DATA       1055:0004        00000000
                ICONST2               FAR_DATA       1114:0004        00000000
                ID_E                  FAR_DATA       1114:0004        00000000
                IB_B                  FAR_DATA       1114:0004        00000000
                I_BSS                 FAR_DATA       1114:0004        00000000
                IB_E                  FAR_DATA       1219:041a        00000000
D:\projects\fdos\SOURCE\ke2044\kernel\blockio.c
                HMA_TEXT              CODE           020a:18bd        0000053f
                CONST                 DATA           01a3:0160        00000000
                CONST2                DATA           01d6:02aa        00000000
                _DATA                 DATA           0152:0442        00000000
D:\projects\fdos\SOURCE\ke2044\kernel\chario.c
                HMA_TEXT              CODE           020a:1dfc        0000082e
                CONST                 DATA           01a3:0160        00000000
                CONST2                DATA           01d6:02aa        00000000
                _DATA                 DATA           0152:0442        00000000
D:\projects\fdos\SOURCE\ke2044\kernel\systime.c
                HMA_TEXT              CODE           020a:262a        000001d7
                CONST                 DATA           01a3:0160        00000000
                CONST2                DATA           01d6:02aa        00000034
                _DATA                 DATA           0152:0442        00000000
D:\projects\fdos\SOURCE\ke2044\kernel\error.c
                HMA_TEXT              CODE           020a:2801        00000073
                CONST                 DATA           01a3:0160        00000018
                CONST2                DATA           01d6:02de        00000000
                _DATA                 DATA           0152:0442        00000000
D:\projects\fdos\SOURCE\ke2044\kernel\break.c
                HMA_TEXT              CODE           020a:2874        000000a9
                CONST                 DATA           01a3:0178        00000005
                CONST2                DATA           01d6:02de        00000000
                _DATA                 DATA           0152:0442        00000000
D:\projects\fdos\SOURCE\ke2044\kernel\dosfns.c
                HMA_TEXT              CODE           020a:291d        0000110b
                CONST                 DATA           01a3:017e        00000000
                CONST2                DATA           01d6:02de        00000000
                _DATA                 DATA           0152:0442        00000001
D:\projects\fdos\SOURCE\ke2044\kernel\fatdir.c
                HMA_TEXT              CODE           020a:3a28        0000047c
                CONST                 DATA           01a3:017e        00000000
                CONST2                DATA           01d6:02de        00000000
                _DATA                 DATA           0152:0444        00000000
D:\projects\fdos\SOURCE\ke2044\kernel\fatfs.c
                HMA_TEXT              CODE           020a:3ea4        00001355
                CONST                 DATA           01a3:017e        00000021
                CONST2                DATA           01d6:02de        00000000
                _DATA                 DATA           0152:0444        00000000
                _BSS                  BSS            0128:020a        00000004
D:\projects\fdos\SOURCE\ke2044\kernel\fattab.c
                HMA_TEXT              CODE           020a:51f9        000002e8
                CONST                 DATA           01a3:01a0        00000045
                CONST2                DATA           01d6:02de        00000000
                _DATA                 DATA           0152:0444        00000000
D:\projects\fdos\SOURCE\ke2044\kernel\fcbfns.c
                HMA_TEXT              CODE           020a:54e1        00000abe
                CONST                 DATA           01a3:01e6        00000018
                CONST2                DATA           01d6:02de        00000000
                _DATA                 DATA           0152:0444        00000000
                _BSS                  BSS            0128:020e        0000002c
D:\projects\fdos\SOURCE\ke2044\kernel\inthndlr.c
                HMA_TEXT              CODE           020a:5f9f        00001706
                CONST                 DATA           01a3:01fe        00000084
                CONST2                DATA           01d6:02de        00000042
                _DATA                 DATA           0152:0444        00000000
                _BSS                  BSS            0128:023a        00000072
D:\projects\fdos\SOURCE\ke2044\kernel\ioctl.c
                HMA_TEXT              CODE           020a:76a5        000002db
                CONST                 DATA           01a3:0282        00000000
                CONST2                DATA           01d6:0320        00000012
                _DATA                 DATA           0152:0444        00000000
D:\projects\fdos\SOURCE\ke2044\kernel\memmgr.c
                HMA_TEXT              CODE           020a:7980        00000563
                CONST                 DATA           01a3:0282        00000029
                CONST2                DATA           01d6:0332        00000000
                _DATA                 DATA           0152:0444        00000000
D:\projects\fdos\SOURCE\ke2044\kernel\task.c
                HMA_TEXT              CODE           020a:7ee3        00000cf8
                CONST                 DATA           01a3:02ac        0000004a
                CONST2                DATA           01d6:0332        00000000
                _DATA                 DATA           0152:0444        00000000
D:\projects\fdos\SOURCE\ke2044\kernel\newstuff.c
                HMA_TEXT              CODE           020a:8bdb        000008bc
                CONST                 DATA           01a3:02f6        0000000a
                CONST2                DATA           01d6:0332        0000000c
                _DATA                 DATA           0152:0444        00000000
D:\projects\fdos\SOURCE\ke2044\kernel\nls.c
                HMA_TEXT              CODE           020a:9497        000005d2
                CONST                 DATA           01a3:0300        00000024
                CONST2                DATA           01d6:033e        00000000
                _DATA                 DATA           0152:0444        00000010
D:\projects\fdos\SOURCE\ke2044\kernel\network.c
                HMA_TEXT              CODE           020a:9a69        00000043
                CONST                 DATA           01a3:0324        00000000
                CONST2                DATA           01d6:033e        00000000
                _DATA                 DATA           0152:0454        00000000
D:\projects\fdos\SOURCE\ke2044\kernel\prf.c
                HMA_TEXT              CODE           020a:9aac        00000120
                CONST                 DATA           01a3:0324        00000011
                CONST2                DATA           01d6:033e        00000000
                _DATA                 DATA           0152:0454        00000000
D:\projects\fdos\SOURCE\ke2044\kernel\misc.c
                HMA_TEXT              CODE           020a:9bcc        00000000
                CONST                 DATA           01a3:0336        00000000
                CONST2                DATA           01d6:033e        00000000
                _DATA                 DATA           0152:0454        00000000
D:\projects\fdos\SOURCE\ke2044\kernel\strings.c
                HMA_TEXT              CODE           020a:9bcc        00000000
                CONST                 DATA           01a3:0336        00000000
                CONST2                DATA           01d6:033e        00000000
                _DATA                 DATA           0152:0454        00000000
D:\projects\fdos\SOURCE\ke2044\kernel\syspack.c
                HMA_TEXT              CODE           020a:9bcc        00000000
                CONST                 DATA           01a3:0336        00000000
                CONST2                DATA           01d6:033e        00000000
                _DATA                 DATA           0152:0454        00000000
D:\projects\fdos\SOURCE\ke2044\kernel\lfnapi.c
                HMA_TEXT              CODE           020a:9bcc        00000000
                CONST                 DATA           01a3:0336        00000000
                CONST2                DATA           01d6:033e        00000000
                _DATA                 DATA           0152:0454        00000000
memdisk.asm     PSP                   PSP            0000:0100        00000000
                _IRQTEXT              LCODE          0010:0100        00000000
                _LOWTEXT              LCODE          0020:0112        00000000
                _IO_TEXT              LCODE          0031:0339        00000000
                _IO_FIXED_DATA        LCODE          0064:0148        00000000
                _TEXT                 LCODE          0078:0007        00000000
                _FIXED_DATA           FDATA          0079:0b00        00000000
                _BSS                  BSS            0128:02ac        00000000
                _DATA                 DATA           0152:0454        00000000
                _DATAEND              DATA           0197:00c4        00000000
                CONST                 DATA           01a3:0336        00000000
                CONST2                DATA           01d6:033e        00000000
                DCONST                DCONST         0209:000e        00000000
                DYN_DATA              DYN_DATA       0209:0010        00000000
                HMA_TEXT_START        CODE           020a:0000        00000000
                HMA_TEXT              CODE           020a:9bcc        00000000
                HMA_TEXT_END          CODE           0bd6:0000        00000000
                INIT_TEXT_START       CODE           0bd6:0000        00000000
                INIT_TEXT             CODE           0bd6:02a8        00000062
                INIT_TEXT_END         CODE           0ff3:0000        00000000
                ID_B                  FAR_DATA       0ff3:0000        00000000
                I_DATA                FAR_DATA       0ff3:0000        00000000
                ICONST                FAR_DATA       1055:0004        00000000
                ICONST2               FAR_DATA       1114:0004        00000000
                ID_E                  FAR_DATA       1114:0004        00000000
                IB_B                  FAR_DATA       1114:0004        00000000
                I_BSS                 FAR_DATA       1114:0004        00000000
                IB_E                  FAR_DATA       1219:041a        00000000
D:\projects\fdos\SOURCE\ke2044\kernel\main.c
                INIT_TEXT             CODE           0bd6:030a        00000964
                ICONST                FAR_DATA       1055:0004        00000124
                ICONST2               FAR_DATA       1114:0004        00000000
                I_DATA                FAR_DATA       0ff3:0000        000002b2
                I_BSS                 FAR_DATA       1114:0004        00000002
D:\projects\fdos\SOURCE\ke2044\kernel\config.c
                INIT_TEXT             CODE           0bd6:0c6e        00001f29
                ICONST                FAR_DATA       1055:0128        0000050b
                ICONST2               FAR_DATA       1114:0004        00000000
                I_DATA                FAR_DATA       0ff3:02b2        000002bf
                I_BSS                 FAR_DATA       1114:0006        00000e06
D:\projects\fdos\SOURCE\ke2044\kernel\initoem.c
                INIT_TEXT             CODE           0bd6:2b97        00000096
                ICONST                FAR_DATA       1055:0634        00000000
                ICONST2               FAR_DATA       1114:0004        00000000
                I_DATA                FAR_DATA       0ff3:0572        00000000
D:\projects\fdos\SOURCE\ke2044\kernel\inithma.c
                INIT_TEXT             CODE           0bd6:2c2d        0000026d
                ICONST                FAR_DATA       1055:0634        000000ad
                ICONST2               FAR_DATA       1114:0004        00000000
                I_DATA                FAR_DATA       0ff3:0572        00000018
                I_BSS                 FAR_DATA       1114:0e0c        00000004
D:\projects\fdos\SOURCE\ke2044\kernel\dyninit.c
                INIT_TEXT             CODE           0bd6:2e9a        0000006f
                ICONST                FAR_DATA       1055:06e2        0000000f
                ICONST2               FAR_DATA       1114:0004        00000000
                I_DATA                FAR_DATA       0ff3:058a        00000000
D:\projects\fdos\SOURCE\ke2044\kernel\iprf.c
                INIT_TEXT             CODE           0bd6:2f09        0000029c
                ICONST                FAR_DATA       1055:06f2        0000001b
                ICONST2               FAR_DATA       1114:0004        00000000
                I_DATA                FAR_DATA       0ff3:058a        00000002
D:\projects\fdos\SOURCE\ke2044\kernel\initdisk.c
                INIT_TEXT             CODE           0bd6:31a5        00000f13
                ICONST                FAR_DATA       1055:070e        000004e6
                ICONST2               FAR_DATA       1114:0004        00000000
                I_DATA                FAR_DATA       0ff3:058c        00000067
                I_BSS                 FAR_DATA       1114:0e10        0000024a
D:\projects\fdos\SOURCE\ke2044\kernel\initclk.c
                INIT_TEXT             CODE           0bd6:40b8        000000c1
                ICONST                FAR_DATA       1055:0bf4        00000000
                ICONST2               FAR_DATA       1114:0004        00000000
                I_DATA                FAR_DATA       0ff3:05f4        00000030
cpu.asm         PSP                   PSP            0000:0100        00000000
                _IRQTEXT              LCODE          0010:0100        00000000
                _LOWTEXT              LCODE          0020:0112        00000000
                _IO_TEXT              LCODE          0031:0339        00000000
                _IO_FIXED_DATA        LCODE          0064:0148        00000000
                _TEXT                 LCODE          0078:0007        00000000
                _FIXED_DATA           FDATA          0079:0b00        00000000
                _BSS                  BSS            0128:02ac        00000000
                _DATA                 DATA           0152:0454        00000000
                _DATAEND              DATA           0197:00c4        00000000
                CONST                 DATA           01a3:0336        00000000
                CONST2                DATA           01d6:033e        00000000
                DCONST                DCONST         0209:000e        00000000
                DYN_DATA              DYN_DATA       0209:0010        00000000
                HMA_TEXT_START        CODE           020a:0000        00000000
                HMA_TEXT              CODE           020a:9bcc        00000000
                HMA_TEXT_END          CODE           0bd6:0000        00000000
                INIT_TEXT_START       CODE           0bd6:0000        00000000
                INIT_TEXT             CODE           0bd6:4179        0000004c
                INIT_TEXT_END         CODE           0ff3:0000        00000000
                ID_B                  FAR_DATA       0ff3:0000        00000000
                I_DATA                FAR_DATA       0ff3:0624        00000000
                ICONST                FAR_DATA       1055:0bf4        00000000
                ICONST2               FAR_DATA       1114:0004        00000000
                ID_E                  FAR_DATA       1114:0004        00000000
                IB_B                  FAR_DATA       1114:0004        00000000
                I_BSS                 FAR_DATA       1114:105a        00000000
                IB_E                  FAR_DATA       1219:041a        00000000
rdpcclk.asm     PSP                   PSP            0000:0100        00000000
                _IRQTEXT              LCODE          0010:0100        00000000
                _LOWTEXT              LCODE          0020:0112        00000000
                _IO_TEXT              LCODE          0031:0339        00000000
                _IO_FIXED_DATA        LCODE          0064:0148        00000000
                _TEXT                 LCODE          0078:0007        00000000
                _FIXED_DATA           FDATA          0079:0b00        00000000
                _BSS                  BSS            0128:02ac        00000000
                _DATA                 DATA           0152:0454        00000000
                _DATAEND              DATA           0197:00c4        00000000
                CONST                 DATA           01a3:0336        00000000
                CONST2                DATA           01d6:033e        00000000
                DCONST                DCONST         0209:000e        00000000
                DYN_DATA              DYN_DATA       0209:0010        00000000
                HMA_TEXT_START        CODE           020a:0000        00000000
                HMA_TEXT              CODE           020a:9bcc        00000010
                HMA_TEXT_END          CODE           0bd6:0000        00000000
                INIT_TEXT_START       CODE           0bd6:0000        00000000
                INIT_TEXT             CODE           0bd6:41c5        00000000
                INIT_TEXT_END         CODE           0ff3:0000        00000000
                ID_B                  FAR_DATA       0ff3:0000        00000000
                I_DATA                FAR_DATA       0ff3:0624        00000000
                ICONST                FAR_DATA       1055:0bf4        00000000
                ICONST2               FAR_DATA       1114:0004        00000000
                ID_E                  FAR_DATA       1114:0004        00000000
                IB_B                  FAR_DATA       1114:0004        00000000
                I_BSS                 FAR_DATA       1114:105a        00000000
                IB_E                  FAR_DATA       1219:041a        00000000
floppy.asm      PSP                   PSP            0000:0100        00000000
                _IRQTEXT              LCODE          0010:0100        00000000
                _LOWTEXT              LCODE          0020:0112        00000000
                _IO_TEXT              LCODE          0031:0339        00000000
                _IO_FIXED_DATA        LCODE          0064:0148        00000000
                _TEXT                 LCODE          0078:0007        00000000
                _FIXED_DATA           FDATA          0079:0b00        00000000
                _BSS                  BSS            0128:02ac        00000000
                _DATA                 DATA           0152:0454        00000000
                _DATAEND              DATA           0197:00c4        00000000
                CONST                 DATA           01a3:0336        00000000
                CONST2                DATA           01d6:033e        00000000
                DCONST                DCONST         0209:000e        00000000
                DYN_DATA              DYN_DATA       0209:0010        00000000
                HMA_TEXT_START        CODE           020a:0000        00000000
                HMA_TEXT              CODE           020a:9bdc        000000b4
                HMA_TEXT_END          CODE           0bd6:0000        00000000
                INIT_TEXT_START       CODE           0bd6:0000        00000000
                INIT_TEXT             CODE           0bd6:41c5        00000000
                INIT_TEXT_END         CODE           0ff3:0000        00000000
                ID_B                  FAR_DATA       0ff3:0000        00000000
                I_DATA                FAR_DATA       0ff3:0624        00000000
                ICONST                FAR_DATA       1055:0bf4        00000000
                ICONST2               FAR_DATA       1114:0004        00000000
                ID_E                  FAR_DATA       1114:0004        00000000
                IB_B                  FAR_DATA       1114:0004        00000000
                I_BSS                 FAR_DATA       1114:105a        00000000
                IB_E                  FAR_DATA       1219:041a        00000000
wrpcclk.asm     PSP                   PSP            0000:0100        00000000
                _IRQTEXT              LCODE          0010:0100        00000000
                _LOWTEXT              LCODE          0020:0112        00000000
                _IO_TEXT              LCODE          0031:0339        00000000
                _IO_FIXED_DATA        LCODE          0064:0148        00000000
                _TEXT                 LCODE          0078:0007        00000000
                _FIXED_DATA           FDATA          0079:0b00        00000000
                _BSS                  BSS            0128:02ac        00000000
                _DATA                 DATA           0152:0454        00000000
                _DATAEND              DATA           0197:00c4        00000000
                CONST                 DATA           01a3:0336        00000000
                CONST2                DATA           01d6:033e        00000000
                DCONST                DCONST         0209:000e        00000000
                DYN_DATA              DYN_DATA       0209:0010        00000000
                HMA_TEXT_START        CODE           020a:0000        00000000
                HMA_TEXT              CODE           020a:9c90        00000009
                HMA_TEXT_END          CODE           0bd6:0000        00000000
                INIT_TEXT_START       CODE           0bd6:0000        00000000
                INIT_TEXT             CODE           0bd6:41c5        00000000
                INIT_TEXT_END         CODE           0ff3:0000        00000000
                ID_B                  FAR_DATA       0ff3:0000        00000000
                I_DATA                FAR_DATA       0ff3:0624        00000000
                ICONST                FAR_DATA       1055:0bf4        00000000
                ICONST2               FAR_DATA       1114:0004        00000000
                ID_E                  FAR_DATA       1114:0004        00000000
                IB_B                  FAR_DATA       1114:0004        00000000
                I_BSS                 FAR_DATA       1114:105a        00000000
                IB_E                  FAR_DATA       1219:041a        00000000
wratclk.asm     PSP                   PSP            0000:0100        00000000
                _IRQTEXT              LCODE          0010:0100        00000000
                _LOWTEXT              LCODE          0020:0112        00000000
                _IO_TEXT              LCODE          0031:0339        00000000
                _IO_FIXED_DATA        LCODE          0064:0148        00000000
                _TEXT                 LCODE          0078:0007        00000000
                _FIXED_DATA           FDATA          0079:0b00        00000000
                _BSS                  BSS            0128:02ac        00000000
                _DATA                 DATA           0152:0454        00000000
                _DATAEND              DATA           0197:00c4        00000000
                CONST                 DATA           01a3:0336        00000000
                CONST2                DATA           01d6:033e        00000000
                DCONST                DCONST         0209:000e        00000000
                DYN_DATA              DYN_DATA       0209:0010        00000000
                HMA_TEXT_START        CODE           020a:0000        00000000
                HMA_TEXT              CODE           020a:9c99        00000022
                HMA_TEXT_END          CODE           0bd6:0000        00000000
                INIT_TEXT_START       CODE           0bd6:0000        00000000
                INIT_TEXT             CODE           0bd6:41c5        00000000
                INIT_TEXT_END         CODE           0ff3:0000        00000000
                ID_B                  FAR_DATA       0ff3:0000        00000000
                I_DATA                FAR_DATA       0ff3:0624        00000000
                ICONST                FAR_DATA       1055:0bf4        00000000
                ICONST2               FAR_DATA       1114:0004        00000000
                ID_E                  FAR_DATA       1114:0004        00000000
                IB_B                  FAR_DATA       1114:0004        00000000
                I_BSS                 FAR_DATA       1114:105a        00000000
                IB_E                  FAR_DATA       1219:041a        00000000


                        +--------------------+
                        |   Libraries Used   |
                        +--------------------+

..\lib\device.lib


                        +-----------------------+
                        |   Linker Statistics   |
                        +-----------------------+

Stack size:  1000 (4096.)
Memory size:  000135aa (79274.)
Entry point address: 0000:0000
Link time: 00:00.25
